target datalayout = "e-m:e-p270:32:32-p271:32:32-p272:64:64-i64:64-i128:128-f80:128-n8:16:32:64-S128"
target triple = "x86_64-pc-linux-gnu"

%struct.trigger_info_msg = type { i32, ptr }
%struct.trigger_info = type { i16, i32, i16, ptr, i32, i32, i16, i32, ptr }

; Function Attrs: nounwind uwtable
define dso_local void @slurm_free_trigger_msg(ptr noundef %0) #0 {
  %2 = alloca ptr, align 8
  %3 = alloca i32, align 4
  store ptr %0, ptr %2, align 8
  call void @llvm.lifetime.start.p0(i64 4, ptr %3) #11
  %4 = load ptr, ptr %2, align 8
  %5 = getelementptr inbounds nuw %struct.trigger_info_msg, ptr %4, i32 0, i32 1
  %6 = load ptr, ptr %5, align 8
  %7 = icmp ne ptr %6, null
  br i1 %7, label %8, label %36

8:                                                ; preds = %1
  store i32 0, ptr %3, align 4
  br label %9

9:                                                ; preds = %30, %8
  %10 = load i32, ptr %3, align 4
  %11 = load ptr, ptr %2, align 8
  %12 = getelementptr inbounds nuw %struct.trigger_info_msg, ptr %11, i32 0, i32 0
  %13 = load i32, ptr %12, align 8
  %14 = icmp ult i32 %10, %13
  br i1 %14, label %15, label %33

15:                                               ; preds = %9
  %16 = load ptr, ptr %2, align 8
  %17 = getelementptr inbounds nuw %struct.trigger_info_msg, ptr %16, i32 0, i32 1
  %18 = load ptr, ptr %17, align 8
  %19 = load i32, ptr %3, align 4
  %20 = sext i32 %19 to i64
  %21 = getelementptr inbounds %struct.trigger_info, ptr %18, i64 %20
  %22 = getelementptr inbounds nuw %struct.trigger_info, ptr %21, i32 0, i32 3
  call void @slurm_xfree(ptr noundef %22)
  %23 = load ptr, ptr %2, align 8
  %24 = getelementptr inbounds nuw %struct.trigger_info_msg, ptr %23, i32 0, i32 1
  %25 = load ptr, ptr %24, align 8
  %26 = load i32, ptr %3, align 4
  %27 = sext i32 %26 to i64
  %28 = getelementptr inbounds %struct.trigger_info, ptr %25, i64 %27
  %29 = getelementptr inbounds nuw %struct.trigger_info, ptr %28, i32 0, i32 8
  call void @slurm_xfree(ptr noundef %29)
  br label %30

30:                                               ; preds = %15
  %31 = load i32, ptr %3, align 4
  %32 = add nsw i32 %31, 1
  store i32 %32, ptr %3, align 4
  br label %9, !llvm.loop !63

33:                                               ; preds = %9
  %34 = load ptr, ptr %2, align 8
  %35 = getelementptr inbounds nuw %struct.trigger_info_msg, ptr %34, i32 0, i32 1
  call void @slurm_xfree(ptr noundef %35)
  br label %36

36:                                               ; preds = %33, %1
  call void @slurm_xfree(ptr noundef %2)
  call void @llvm.lifetime.end.p0(i64 4, ptr %3) #11
  ret void
}