; Function Attrs: nounwind uwtable
define dso_local void @slurm_free_trigger_msg(ptr noundef %0) local_unnamed_addr #1 {
  %2 = alloca ptr, align 8
  store ptr %0, ptr %2, align 8
  %3 = getelementptr inbounds nuw i8, ptr %0, i64 8
  %4 = load ptr, ptr %3, align 8
  %.not = icmp eq ptr %4, null
  br i1 %.not, label %13, label %.preheader

.preheader:                                       ; preds = %1
  %5 = load i32, ptr %0, align 8
  %.not5 = icmp eq i32 %5, 0
  br i1 %.not5, label %._crit_edge, label %.lr.ph

.lr.ph:                                           ; preds = %.preheader, %.lr.ph
  %indvars.iv = phi i64 [ %indvars.iv.next, %.lr.ph ], [ 0, %.preheader ]
  %6 = load ptr, ptr %3, align 8
  %7 = getelementptr inbounds nuw %struct.trigger_info, ptr %6, i64 %indvars.iv, i32 3
  tail call void @slurm_xfree(ptr noundef nonnull %7) #24
  %8 = load ptr, ptr %3, align 8
  %9 = getelementptr inbounds nuw %struct.trigger_info, ptr %8, i64 %indvars.iv, i32 8
  tail call void @slurm_xfree(ptr noundef nonnull %9) #24
  %indvars.iv.next = add nuw nsw i64 %indvars.iv, 1
  %10 = load i32, ptr %0, align 8
  %11 = zext i32 %10 to i64
  %12 = icmp samesign ult i64 %indvars.iv.next, %11
  br i1 %12, label %.lr.ph, label %._crit_edge, !llvm.loop !64

._crit_edge:                                      ; preds = %.lr.ph, %.preheader
  tail call void @slurm_xfree(ptr noundef nonnull %3) #24
  br label %13

13:                                               ; preds = %._crit_edge, %1
  call void @slurm_xfree(ptr noundef nonnull %2) #24
  ret void
}